<?xml version="1.0"?>
<pdml version="0" creator="wireshark/0.99.5">
<packet>
  <proto name="geninfo" pos="0" showname="General information" size="342">
    <field name="num" pos="0" show="1" showname="Number" value="1" size="342"/>
    <field name="len" pos="0" show="342" showname="Packet Length" value="156" size="342"/>
    <field name="caplen" pos="0" show="342" showname="Captured Length" value="156" size="342"/>
    <field name="timestamp" pos="0" show="May 24, 2007 21:34:26.853948000" showname="Captured Time" value="1180067666.853948000" size="342"/>
  </proto>
  <proto name="frame" showname="Frame 1 (342 bytes on wire, 342 bytes captured)" size="342" pos="0">
    <field name="frame.time" showname="Arrival Time: May 24, 2007 21:34:26.853948000" size="0" pos="0" show="May 24, 2007 21:34:26.853948000"/>
    <field name="frame.time_delta" showname="Time delta from previous packet: 0.000000000 seconds" size="0" pos="0" show="0.000000000"/>
    <field name="frame.time_relative" showname="Time since reference or first frame: 0.000000000 seconds" size="0" pos="0" show="0.000000000"/>
    <field name="frame.number" showname="Frame Number: 1" size="0" pos="0" show="1"/>
    <field name="frame.pkt_len" showname="Packet Length: 342 bytes" size="0" pos="0" show="342"/>
    <field name="frame.cap_len" showname="Capture Length: 342 bytes" size="0" pos="0" show="342"/>
    <field name="frame.marked" showname="Frame is marked: False" size="0" pos="0" show="0"/>
    <field name="frame.protocols" showname="Protocols in frame: eth:ip:udp:bootp" size="0" pos="0" show="eth:ip:udp:bootp"/>
  </proto>
  <proto name="eth" showname="Ethernet II, Src: Shuttle_43:69:43 (00:30:1b:43:69:43), Dst: AppleCom_c2:d8:df (00:16:cb:c2:d8:df)" size="14" pos="0">
    <field name="eth.dst" showname="Destination: AppleCom_c2:d8:df (00:16:cb:c2:d8:df)" size="6" pos="0" show="00:16:cb:c2:d8:df" value="0016cbc2d8df">
      <field name="eth.addr" showname="Address: AppleCom_c2:d8:df (00:16:cb:c2:d8:df)" size="6" pos="0" show="00:16:cb:c2:d8:df" value="0016cbc2d8df"/>
      <field name="eth.ig" showname=".... ...0 .... .... .... .... = IG bit: Individual address (unicast)" size="3" pos="0" show="0" value="0" unmaskedvalue="0016cb"/>
      <field name="eth.lg" showname=".... ..0. .... .... .... .... = LG bit: Globally unique address (factory default)" size="3" pos="0" show="0" value="0" unmaskedvalue="0016cb"/>
    </field>
    <field name="eth.src" showname="Source: Shuttle_43:69:43 (00:30:1b:43:69:43)" size="6" pos="6" show="00:30:1b:43:69:43" value="00301b436943">
      <field name="eth.addr" showname="Address: Shuttle_43:69:43 (00:30:1b:43:69:43)" size="6" pos="6" show="00:30:1b:43:69:43" value="00301b436943"/>
      <field name="eth.ig" showname=".... ...0 .... .... .... .... = IG bit: Individual address (unicast)" size="3" pos="6" show="0" value="0" unmaskedvalue="00301b"/>
      <field name="eth.lg" showname=".... ..0. .... .... .... .... = LG bit: Globally unique address (factory default)" size="3" pos="6" show="0" value="0" unmaskedvalue="00301b"/>
    </field>
    <field name="eth.type" showname="Type: IP (0x0800)" size="2" pos="12" show="0x0800" value="0800"/>
  </proto>
  <proto name="ip" showname="Internet Protocol, Src: 192.168.1.10 (192.168.1.10), Dst: 192.168.1.1 (192.168.1.1)" size="20" pos="14">
    <field name="ip.version" showname="Version: 4" size="1" pos="14" show="4" value="45"/>
    <field name="ip.hdr_len" showname="Header length: 20 bytes" size="1" pos="14" show="20" value="45"/>
    <field name="ip.dsfield" showname="Differentiated Services Field: 0x00 (DSCP 0x00: Default; ECN: 0x00)" size="1" pos="15" show="0" value="00">
      <field name="ip.dsfield.dscp" showname="0000 00.. = Differentiated Services Codepoint: Default (0x00)" size="1" pos="15" show="0x00" value="0" unmaskedvalue="00"/>
      <field name="ip.dsfield.ect" showname=".... ..0. = ECN-Capable Transport (ECT): 0" size="1" pos="15" show="0" value="0" unmaskedvalue="00"/>
      <field name="ip.dsfield.ce" showname=".... ...0 = ECN-CE: 0" size="1" pos="15" show="0" value="0" unmaskedvalue="00"/>
    </field>
    <field name="ip.len" showname="Total Length: 328" size="2" pos="16" show="328" value="0148"/>
    <field name="ip.id" showname="Identification: 0x0ab2 (2738)" size="2" pos="18" show="0x0ab2" value="0ab2"/>
    <field name="ip.flags" showname="Flags: 0x00" size="1" pos="20" show="0x00" value="00">
      <field name="ip.flags.rb" showname="0... = Reserved bit: Not set" size="1" pos="20" show="0" value="0" unmaskedvalue="00"/>
      <field name="ip.flags.df" showname=".0.. = Don&apos;t fragment: Not set" size="1" pos="20" show="0" value="0" unmaskedvalue="00"/>
      <field name="ip.flags.mf" showname="..0. = More fragments: Not set" size="1" pos="20" show="0" value="0" unmaskedvalue="00"/>
    </field>
    <field name="ip.frag_offset" showname="Fragment offset: 0" size="2" pos="20" show="0" value="0000"/>
    <field name="ip.ttl" showname="Time to live: 128" size="1" pos="22" show="128" value="80"/>
    <field name="ip.proto" showname="Protocol: UDP (0x11)" size="1" pos="23" show="0x11" value="11"/>
    <field name="ip.checksum" showname="Header checksum: 0x0000 [incorrect, should be 0xab97]" size="2" pos="24" show="0x0000" value="0000">
      <field name="ip.checksum_good" showname="Good: False" size="2" pos="24" show="0" value="0000"/>
      <field name="ip.checksum_bad" showname="Bad : True" size="2" pos="24" show="1" value="0000"/>
    </field>
    <field name="ip.src" showname="Source: 192.168.1.10 (192.168.1.10)" size="4" pos="26" show="192.168.1.10" value="c0a8010a"/>
    <field name="ip.addr" showname="Source or Destination Address: 192.168.1.10 (192.168.1.10)" hide="yes" size="4" pos="26" show="192.168.1.10" value="c0a8010a"/>
    <field name="ip.src_host" showname="Source Host: 192.168.1.10" hide="yes" size="4" pos="26" show="192.168.1.10" value="c0a8010a"/>
    <field name="ip.host" showname="Source or Destination Host: 192.168.1.10" hide="yes" size="4" pos="26" show="192.168.1.10" value="c0a8010a"/>
    <field name="ip.dst" showname="Destination: 192.168.1.1 (192.168.1.1)" size="4" pos="30" show="192.168.1.1" value="c0a80101"/>
    <field name="ip.addr" showname="Source or Destination Address: 192.168.1.1 (192.168.1.1)" hide="yes" size="4" pos="30" show="192.168.1.1" value="c0a80101"/>
    <field name="ip.dst_host" showname="Destination Host: 192.168.1.1" hide="yes" size="4" pos="30" show="192.168.1.1" value="c0a80101"/>
    <field name="ip.host" showname="Source or Destination Host: 192.168.1.1" hide="yes" size="4" pos="30" show="192.168.1.1" value="c0a80101"/>
  </proto>
  <proto name="udp" showname="User Datagram Protocol, Src Port: bootpc (68), Dst Port: bootps (67)" size="8" pos="34">
    <field name="udp.srcport" showname="Source port: bootpc (68)" size="2" pos="34" show="68" value="0044"/>
    <field name="udp.dstport" showname="Destination port: bootps (67)" size="2" pos="36" show="67" value="0043"/>
    <field name="udp.port" showname="Source or Destination Port: 68" hide="yes" size="2" pos="34" show="68" value="0044"/>
    <field name="udp.port" showname="Source or Destination Port: 67" hide="yes" size="2" pos="36" show="67" value="0043"/>
    <field name="udp.length" showname="Length: 308" size="2" pos="38" show="308" value="0134"/>
    <field name="udp.checksum_coverage" showname="Checksum coverage: 308" hide="yes" size="0" pos="38" show="308"/>
    <field name="udp.checksum" showname="Checksum: 0x84a1 [incorrect, should be 0x0e72]" size="2" pos="40" show="0x84a1" value="84a1">
      <field name="udp.checksum_good" showname="Good Checksum: False" size="2" pos="40" show="0" value="84a1"/>
      <field name="udp.checksum_bad" showname="Bad Checksum: True" size="2" pos="40" show="1" value="84a1"/>
    </field>
  </proto>
  <proto name="bootp" showname="Bootstrap Protocol" size="300" pos="42">
    <field name="bootp.type" showname="Message type: Boot Request (1)" size="1" pos="42" show="1" value="01"/>
    <field name="bootp.hw.type" showname="Hardware type: Ethernet" size="1" pos="43" show="0x01" value="01"/>
    <field name="bootp.hw.len" showname="Hardware address length: 6" size="1" pos="44" show="6" value="06"/>
    <field name="bootp.hops" showname="Hops: 0" size="1" pos="45" show="0" value="00"/>
    <field name="bootp.id" showname="Transaction ID: 0xa04fe426" size="4" pos="46" show="0xa04fe426" value="a04fe426"/>
    <field name="bootp.secs" showname="Seconds elapsed: 0" size="2" pos="50" show="0" value="0000"/>
    <field name="bootp.flags" showname="Bootp flags: 0x0000 (Unicast)" size="2" pos="52" show="0x0000" value="0000">
      <field name="bootp.flags.bc" showname="0... .... .... .... = Broadcast flag: Unicast" size="2" pos="52" show="0" value="0" unmaskedvalue="0000"/>
      <field name="bootp.flags.reserved" showname=".000 0000 0000 0000 = Reserved flags: 0x0000" size="2" pos="52" show="0x0000" value="0" unmaskedvalue="0000"/>
    </field>
    <field name="bootp.ip.client" showname="Client IP address: 192.168.1.10 (192.168.1.10)" size="4" pos="54" show="192.168.1.10" value="c0a8010a"/>
    <field name="bootp.ip.your" showname="Your (client) IP address: 0.0.0.0 (0.0.0.0)" size="4" pos="58" show="0.0.0.0" value="00000000"/>
    <field name="bootp.ip.server" showname="Next server IP address: 0.0.0.0 (0.0.0.0)" size="4" pos="62" show="0.0.0.0" value="00000000"/>
    <field name="bootp.ip.relay" showname="Relay agent IP address: 0.0.0.0 (0.0.0.0)" size="4" pos="66" show="0.0.0.0" value="00000000"/>
    <field name="bootp.hw.mac_addr" showname="Client MAC address: Shuttle_43:69:43 (00:30:1b:43:69:43)" size="6" pos="70" show="00:30:1b:43:69:43" value="00301b436943"/>
    <field name="bootp.server" showname="Server host name not given" size="64" pos="86" show="" value="00000000000000000000000000000000000000000000000000000000000000000000000000000000000000000000000000000000000000000000000000000000"/>
    <field name="bootp.file" showname="Boot file name not given" size="128" pos="150" show="" value="0000000000000000000000000000000000000000000000000000000000000000000000000000000000000000000000000000000000000000000000000000000000000000000000000000000000000000000000000000000000000000000000000000000000000000000000000000000000000000000000000000000000000000"/>
    <field name="bootp.cookie" showname="Magic cookie: (OK)" size="4" pos="278" show="99.130.83.99" value="63825363"/>
    <field name="bootp.dhcp" showname="Frame is DHCP: True" hide="yes" size="0" pos="42" show="1"/>
    <field name="" show="Option: (t=53,l=1) DHCP Message Type = DHCP Request" size="3" pos="282" value="350103">
      <field name="bootp.option.type" showname="Option: (53) DHCP Message Type" size="1" pos="282" show="53" value="35"/>
      <field name="bootp.option.length" showname="Length: 1" size="1" pos="283" show="1" value="01"/>
      <field name="bootp.option.value" showname="Value: 03" size="1" pos="284" show="03" value="03"/>
    </field>
    <field name="" show="Option: (t=61,l=7) Client identifier" size="9" pos="285" value="3d070100301b436943">
      <field name="bootp.option.type" showname="Option: (61) Client identifier" size="1" pos="285" show="61" value="3d"/>
      <field name="bootp.option.length" showname="Length: 7" size="1" pos="286" show="7" value="07"/>
      <field name="bootp.option.value" showname="Value: 0100301B436943" size="7" pos="287" show="01:00:30:1b:43:69:43" value="0100301b436943"/>
      <field name="" show="Hardware type: Ethernet" size="1" pos="287" value="01"/>
      <field name="bootp.hw.mac_addr" showname="Client MAC address: Shuttle_43:69:43 (00:30:1b:43:69:43)" size="6" pos="288" show="00:30:1b:43:69:43" value="00301b436943"/>
    </field>
    <field name="" show="Option: (t=12,l=6) Host Name = &quot;wowcat&quot;" size="8" pos="294" value="0c06776f77636174">
      <field name="bootp.option.type" showname="Option: (12) Host Name" size="1" pos="294" show="12" value="0c"/>
      <field name="bootp.option.length" showname="Length: 6" size="1" pos="295" show="6" value="06"/>
      <field name="bootp.option.value" showname="Value: 776F77636174" size="6" pos="296" show="77:6f:77:63:61:74" value="776f77636174"/>
    </field>
    <field name="" show="Option: (t=81,l=9) Client Fully Qualified Domain Name" size="11" pos="302" value="5109000000776f77636174">
      <field name="bootp.option.type" showname="Option: (81) Client Fully Qualified Domain Name" size="1" pos="302" show="81" value="51"/>
      <field name="bootp.option.length" showname="Length: 9" size="1" pos="303" show="9" value="09"/>
      <field name="bootp.option.value" showname="Value: 000000776F77636174" size="9" pos="304" show="00:00:00:77:6f:77:63:61:74" value="000000776f77636174"/>
      <field name="" show="Flags: 0x00" size="1" pos="304" value="00"/>
      <field name="bootp.fqdn.mbz" showname="0000 .... = Reserved flags: 0x00" size="1" pos="304" show="0x00" value="0" unmaskedvalue="00"/>
      <field name="bootp.fqdn.n" showname=".... 0... = Server DDNS: Some server updates" size="1" pos="304" show="0" value="0" unmaskedvalue="00"/>
      <field name="bootp.fqdn.e" showname=".... .0.. = Encoding: ASCII encoding" size="1" pos="304" show="0" value="0" unmaskedvalue="00"/>
      <field name="bootp.fqdn.o" showname=".... ..0. = Server overrides: No override" size="1" pos="304" show="0" value="0" unmaskedvalue="00"/>
      <field name="bootp.fqdn.s" showname=".... ...0 = Server: Client" size="1" pos="304" show="0" value="0" unmaskedvalue="00"/>
      <field name="bootp.fqdn.rcode1" showname="A-RR result: 0" size="1" pos="305" show="0" value="00"/>
      <field name="bootp.fqdn.rcode2" showname="PTR-RR result: 0" size="1" pos="306" show="0" value="00"/>
      <field name="bootp.fqdn.name" showname="Client name: wowcat" size="6" pos="307" show="wowcat" value="776f77636174"/>
    </field>
    <field name="" show="Option: (t=60,l=8) Vendor class identifier = &quot;MSFT 5.0&quot;" size="10" pos="313" value="3c084d53465420352e30">
      <field name="bootp.option.type" showname="Option: (60) Vendor class identifier" size="1" pos="313" show="60" value="3c"/>
      <field name="bootp.option.length" showname="Length: 8" size="1" pos="314" show="8" value="08"/>
      <field name="bootp.option.value" showname="Value: 4D53465420352E30" size="8" pos="315" show="4d:53:46:54:20:35:2e:30" value="4d53465420352e30"/>
    </field>
    <field name="" show="Option: (t=55,l=12) Parameter Request List" size="14" pos="323" value="370c010f03062c2e2f1f2179f92b">
      <field name="bootp.option.type" showname="Option: (55) Parameter Request List" size="1" pos="323" show="55" value="37"/>
      <field name="bootp.option.length" showname="Length: 12" size="1" pos="324" show="12" value="0c"/>
      <field name="bootp.option.value" showname="Value: 010F03062C2E2F1F2179F92B" size="12" pos="325" show="01:0f:03:06:2c:2e:2f:1f:21:79:f9:2b" value="010f03062c2e2f1f2179f92b"/>
      <field name="" show="1 = Subnet Mask" size="1" pos="325" value="01"/>
      <field name="" show="15 = Domain Name" size="1" pos="326" value="0f"/>
      <field name="" show="3 = Router" size="1" pos="327" value="03"/>
      <field name="" show="6 = Domain Name Server" size="1" pos="328" value="06"/>
      <field name="" show="44 = NetBIOS over TCP/IP Name Server" size="1" pos="329" value="2c"/>
      <field name="" show="46 = NetBIOS over TCP/IP Node Type" size="1" pos="330" value="2e"/>
      <field name="" show="47 = NetBIOS over TCP/IP Scope" size="1" pos="331" value="2f"/>
      <field name="" show="31 = Perform Router Discover" size="1" pos="332" value="1f"/>
      <field name="" show="33 = Static Route" size="1" pos="333" value="21"/>
      <field name="" show="121 = Classless Static Route" size="1" pos="334" value="79"/>
      <field name="" show="249 = Classless static routes" size="1" pos="335" value="f9"/>
      <field name="" show="43 = Vendor-Specific Information" size="1" pos="336" value="2b"/>
    </field>
    <field name="" show="End Option" size="1" pos="337" value="ff"/>
    <field name="" show="Padding" size="4" pos="338" value="00000000"/>
  </proto>
</packet>

</pdml>
