<?xml version="1.0"?>
<pdml version="0" creator="wireshark/0.99.5">
<packet>
  <proto name="geninfo" pos="0" showname="General information" size="71">
    <field name="num" pos="0" show="154" showname="Number" value="9a" size="71"/>
    <field name="len" pos="0" show="71" showname="Packet Length" value="47" size="71"/>
    <field name="caplen" pos="0" show="71" showname="Captured Length" value="47" size="71"/>
    <field name="timestamp" pos="0" show="May 29, 2007 21:37:38.612662000" showname="Captured Time" value="1180499858.612662000" size="71"/>
  </proto>
  <proto name="frame" showname="Frame 154 (71 bytes on wire, 71 bytes captured)" size="71" pos="0">
    <field name="frame.time" showname="Arrival Time: May 29, 2007 21:37:38.612662000" size="0" pos="0" show="May 29, 2007 21:37:38.612662000"/>
    <field name="frame.time_delta" showname="Time delta from previous packet: 0.013696000 seconds" size="0" pos="0" show="0.013696000"/>
    <field name="frame.time_relative" showname="Time since reference or first frame: 5.266606000 seconds" size="0" pos="0" show="5.266606000"/>
    <field name="frame.number" showname="Frame Number: 154" size="0" pos="0" show="154"/>
    <field name="frame.pkt_len" showname="Packet Length: 71 bytes" size="0" pos="0" show="71"/>
    <field name="frame.cap_len" showname="Capture Length: 71 bytes" size="0" pos="0" show="71"/>
    <field name="frame.marked" showname="Frame is marked: False" size="0" pos="0" show="0"/>
    <field name="frame.protocols" showname="Protocols in frame: eth:ip:udp:dns" size="0" pos="0" show="eth:ip:udp:dns"/>
  </proto>
  <proto name="eth" showname="Ethernet II, Src: Shuttle_43:69:43 (00:30:1b:43:69:43), Dst: AppleCom_c2:d8:df (00:16:cb:c2:d8:df)" size="14" pos="0">
    <field name="eth.dst" showname="Destination: AppleCom_c2:d8:df (00:16:cb:c2:d8:df)" size="6" pos="0" show="00:16:cb:c2:d8:df" value="0016cbc2d8df">
      <field name="eth.addr" showname="Address: AppleCom_c2:d8:df (00:16:cb:c2:d8:df)" size="6" pos="0" show="00:16:cb:c2:d8:df" value="0016cbc2d8df"/>
      <field name="eth.ig" showname=".... ...0 .... .... .... .... = IG bit: Individual address (unicast)" size="3" pos="0" show="0" value="0" unmaskedvalue="0016cb"/>
      <field name="eth.lg" showname=".... ..0. .... .... .... .... = LG bit: Globally unique address (factory default)" size="3" pos="0" show="0" value="0" unmaskedvalue="0016cb"/>
    </field>
    <field name="eth.src" showname="Source: Shuttle_43:69:43 (00:30:1b:43:69:43)" size="6" pos="6" show="00:30:1b:43:69:43" value="00301b436943">
      <field name="eth.addr" showname="Address: Shuttle_43:69:43 (00:30:1b:43:69:43)" size="6" pos="6" show="00:30:1b:43:69:43" value="00301b436943"/>
      <field name="eth.ig" showname=".... ...0 .... .... .... .... = IG bit: Individual address (unicast)" size="3" pos="6" show="0" value="0" unmaskedvalue="00301b"/>
      <field name="eth.lg" showname=".... ..0. .... .... .... .... = LG bit: Globally unique address (factory default)" size="3" pos="6" show="0" value="0" unmaskedvalue="00301b"/>
    </field>
    <field name="eth.type" showname="Type: IP (0x0800)" size="2" pos="12" show="0x0800" value="0800"/>
  </proto>
  <proto name="ip" showname="Internet Protocol, Src: 192.168.1.199 (192.168.1.199), Dst: 192.168.1.1 (192.168.1.1)" size="20" pos="14">
    <field name="ip.version" showname="Version: 4" size="1" pos="14" show="4" value="45"/>
    <field name="ip.hdr_len" showname="Header length: 20 bytes" size="1" pos="14" show="20" value="45"/>
    <field name="ip.dsfield" showname="Differentiated Services Field: 0x00 (DSCP 0x00: Default; ECN: 0x00)" size="1" pos="15" show="0" value="00">
      <field name="ip.dsfield.dscp" showname="0000 00.. = Differentiated Services Codepoint: Default (0x00)" size="1" pos="15" show="0x00" value="0" unmaskedvalue="00"/>
      <field name="ip.dsfield.ect" showname=".... ..0. = ECN-Capable Transport (ECT): 0" size="1" pos="15" show="0" value="0" unmaskedvalue="00"/>
      <field name="ip.dsfield.ce" showname=".... ...0 = ECN-CE: 0" size="1" pos="15" show="0" value="0" unmaskedvalue="00"/>
    </field>
    <field name="ip.len" showname="Total Length: 57" size="2" pos="16" show="57" value="0039"/>
    <field name="ip.id" showname="Identification: 0x12ce (4814)" size="2" pos="18" show="0x12ce" value="12ce"/>
    <field name="ip.flags" showname="Flags: 0x00" size="1" pos="20" show="0x00" value="00">
      <field name="ip.flags.rb" showname="0... = Reserved bit: Not set" size="1" pos="20" show="0" value="0" unmaskedvalue="00"/>
      <field name="ip.flags.df" showname=".0.. = Don&apos;t fragment: Not set" size="1" pos="20" show="0" value="0" unmaskedvalue="00"/>
      <field name="ip.flags.mf" showname="..0. = More fragments: Not set" size="1" pos="20" show="0" value="0" unmaskedvalue="00"/>
    </field>
    <field name="ip.frag_offset" showname="Fragment offset: 0" size="2" pos="20" show="0" value="0000"/>
    <field name="ip.ttl" showname="Time to live: 128" size="1" pos="22" show="128" value="80"/>
    <field name="ip.proto" showname="Protocol: UDP (0x11)" size="1" pos="23" show="0x11" value="11"/>
    <field name="ip.checksum" showname="Header checksum: 0x0000 [incorrect, should be 0xa3cd]" size="2" pos="24" show="0x0000" value="0000">
      <field name="ip.checksum_good" showname="Good: False" size="2" pos="24" show="0" value="0000"/>
      <field name="ip.checksum_bad" showname="Bad : True" size="2" pos="24" show="1" value="0000"/>
    </field>
    <field name="ip.src" showname="Source: 192.168.1.199 (192.168.1.199)" size="4" pos="26" show="192.168.1.199" value="c0a801c7"/>
    <field name="ip.addr" showname="Source or Destination Address: 192.168.1.199 (192.168.1.199)" hide="yes" size="4" pos="26" show="192.168.1.199" value="c0a801c7"/>
    <field name="ip.src_host" showname="Source Host: 192.168.1.199" hide="yes" size="4" pos="26" show="192.168.1.199" value="c0a801c7"/>
    <field name="ip.host" showname="Source or Destination Host: 192.168.1.199" hide="yes" size="4" pos="26" show="192.168.1.199" value="c0a801c7"/>
    <field name="ip.dst" showname="Destination: 192.168.1.1 (192.168.1.1)" size="4" pos="30" show="192.168.1.1" value="c0a80101"/>
    <field name="ip.addr" showname="Source or Destination Address: 192.168.1.1 (192.168.1.1)" hide="yes" size="4" pos="30" show="192.168.1.1" value="c0a80101"/>
    <field name="ip.dst_host" showname="Destination Host: 192.168.1.1" hide="yes" size="4" pos="30" show="192.168.1.1" value="c0a80101"/>
    <field name="ip.host" showname="Source or Destination Host: 192.168.1.1" hide="yes" size="4" pos="30" show="192.168.1.1" value="c0a80101"/>
  </proto>
  <proto name="udp" showname="User Datagram Protocol, Src Port: 49968 (49968), Dst Port: domain (53)" size="8" pos="34">
    <field name="udp.srcport" showname="Source port: 49968 (49968)" size="2" pos="34" show="49968" value="c330"/>
    <field name="udp.dstport" showname="Destination port: domain (53)" size="2" pos="36" show="53" value="0035"/>
    <field name="udp.port" showname="Source or Destination Port: 49968" hide="yes" size="2" pos="34" show="49968" value="c330"/>
    <field name="udp.port" showname="Source or Destination Port: 53" hide="yes" size="2" pos="36" show="53" value="0035"/>
    <field name="udp.length" showname="Length: 37" size="2" pos="38" show="37" value="0025"/>
    <field name="udp.checksum_coverage" showname="Checksum coverage: 37" hide="yes" size="0" pos="38" show="37"/>
    <field name="udp.checksum" showname="Checksum: 0x844f [incorrect, should be 0xaf0a]" size="2" pos="40" show="0x844f" value="844f">
      <field name="udp.checksum_good" showname="Good Checksum: False" size="2" pos="40" show="0" value="844f"/>
      <field name="udp.checksum_bad" showname="Bad Checksum: True" size="2" pos="40" show="1" value="844f"/>
    </field>
  </proto>
  <proto name="dns" showname="Domain Name System (query)" size="29" pos="42">
    <field name="dns.id" showname="Transaction ID: 0xa689" size="2" pos="42" show="0xa689" value="a689"/>
    <field name="dns.flags" showname="Flags: 0x0100 (Standard query)" size="2" pos="44" show="0x0100" value="0100">
      <field name="dns.flags.response" showname="0... .... .... .... = Response: Message is a query" size="2" pos="44" show="0" value="0" unmaskedvalue="0100"/>
      <field name="dns.flags.opcode" showname=".000 0... .... .... = Opcode: Standard query (0)" size="2" pos="44" show="0" value="0" unmaskedvalue="0100"/>
      <field name="dns.flags.truncated" showname=".... ..0. .... .... = Truncated: Message is not truncated" size="2" pos="44" show="0" value="0" unmaskedvalue="0100"/>
      <field name="dns.flags.recdesired" showname=".... ...1 .... .... = Recursion desired: Do query recursively" size="2" pos="44" show="1" value="1" unmaskedvalue="0100"/>
      <field name="dns.flags.z" showname=".... .... .0.. .... = Z: reserved (0)" size="2" pos="44" show="0" value="0" unmaskedvalue="0100"/>
      <field name="dns.flags.checkdisable" showname=".... .... ...0 .... = Non-authenticated data OK: Non-authenticated data is unacceptable" size="2" pos="44" show="0" value="0" unmaskedvalue="0100"/>
    </field>
    <field name="dns.count.queries" showname="Questions: 1" size="2" pos="46" show="1" value="0001"/>
    <field name="dns.count.answers" showname="Answer RRs: 0" size="2" pos="48" show="0" value="0000"/>
    <field name="dns.count.auth_rr" showname="Authority RRs: 0" size="2" pos="50" show="0" value="0000"/>
    <field name="dns.count.add_rr" showname="Additional RRs: 0" size="2" pos="52" show="0" value="0000"/>
    <field name="" show="Queries" size="17" pos="54" value="0377777703636e6e03636f6d0000010001">
      <field name="" show="www.cnn.com: type A, class IN" size="17" pos="54" value="0377777703636e6e03636f6d0000010001">
        <field name="dns.qry.name" showname="Name: www.cnn.com" size="13" pos="54" show="www.cnn.com" value="0377777703636e6e03636f6d00"/>
        <field name="dns.qry.type" showname="Type: A (Host address)" size="2" pos="67" show="0x0001" value="0001"/>
        <field name="dns.qry.class" showname="Class: IN (0x0001)" size="2" pos="69" show="0x0001" value="0001"/>
      </field>
    </field>
  </proto>
</packet>

</pdml>
